target datalayout = "e-m:e-p270:32:32-p271:32:32-p272:64:64-i64:64-i128:128-f80:128-n8:16:32:64-S128"
target triple = "x86_64-unknown-linux-gnu"

%struct.PCIDevice = type { %struct.DeviceState, i8, i8, ptr, ptr, ptr, ptr, ptr, i32, %struct.PCIReqIDCache, [64 x i8], [7 x %struct.PCIIORegion], %struct.AddressSpace, %struct.MemoryRegion, %struct.MemoryRegion, ptr, ptr, [3 x ptr], i8, i8, i32, i8, i32, ptr, ptr, ptr, ptr, ptr, ptr, %struct.MemoryRegion, %struct.MemoryRegion, %struct.MemoryRegion, ptr, i8, i32, i8, %struct.PCIExpressDevice, ptr, ptr, i32, i8, %struct.MemoryRegion, i32, ptr, ptr, ptr, ptr, ptr, i32 }
%struct.DeviceState = type { %struct.Object, ptr, ptr, i8, i8, i64, ptr, i32, i8, ptr, %struct.NamedGPIOListHead, %struct.NamedClockListHead, %struct.BusStateHead, i32, i32, i32, %struct.ResettableState, ptr, %struct.MemReentrancyGuard }
%struct.Object = type { ptr, ptr, ptr, i32, ptr }
%struct.NamedGPIOListHead = type { ptr }
%struct.NamedClockListHead = type { ptr }
%struct.BusStateHead = type { ptr }
%struct.ResettableState = type { i32, i8, i8 }
%struct.MemReentrancyGuard = type { i8 }
%struct.PCIReqIDCache = type { ptr, i32 }
%struct.PCIIORegion = type { i64, i64, i8, ptr, ptr }
%struct.AddressSpace = type { %struct.rcu_head, ptr, ptr, ptr, i32, i32, ptr, %union.anon, %union.anon.0 }
%struct.rcu_head = type { ptr, ptr }
%union.anon = type { %struct.QTailQLink }
%struct.QTailQLink = type { ptr, ptr }
%union.anon.0 = type { %struct.QTailQLink }
%struct.PCIExpressDevice = type { i8, i8, i8, i16, %struct.PCIEAERLog, i16, i16, i16, %struct.PCIESriovPF, %struct.PCIESriovVF }
%struct.PCIEAERLog = type { i16, i16, ptr }
%struct.PCIESriovPF = type { i16, [7 x i8], ptr, ptr }
%struct.PCIESriovVF = type { ptr, i16 }
%struct.MemoryRegion = type { %struct.Object, i8, i8, i8, i8, i8, i8, i8, i8, i8, i8, ptr, ptr, ptr, ptr, ptr, ptr, i32, i128, i64, ptr, i64, i8, i8, i8, i8, i8, ptr, i64, i32, %union.anon.1, %union.anon.2, %union.anon.3, ptr, i32, ptr, ptr, i8 }
%union.anon.1 = type { %struct.QTailQLink }
%union.anon.2 = type { %struct.QTailQLink }
%union.anon.3 = type { %struct.QTailQLink }
%struct.IVShmemState = type { %struct.PCIDevice, i32, ptr, %struct.CharBackend, i32, i32, i32, %struct.MemoryRegion, ptr, %struct.MemoryRegion, ptr, i32, i32, ptr, i64, i32, i32, ptr }
%struct.CharBackend = type { ptr, ptr, ptr, ptr, ptr, ptr, i32, i32 }
%struct.Peer = type { i32, ptr }
%struct.EventNotifier = type { i32, i32, i8 }
%struct.MSIVector = type { ptr, i32, i8 }
%struct.MSIMessage = type { i64, i32 }

@.str = private unnamed_addr constant [15 x i8] c"ivshmem-common\00", align 1
@.str.7 = private unnamed_addr constant [26 x i8] c"../qemu/hw/misc/ivshmem.c\00", align 1
@__func__.IVSHMEM_COMMON = private unnamed_addr constant [15 x i8] c"IVSHMEM_COMMON\00", align 1
@kvm_state = external global ptr, align 8
@.str.34 = private unnamed_addr constant [40 x i8] c"ivshmem: vector %d route does not exist\00", align 1
@.str.35 = private unnamed_addr constant [13 x i8] c"!v->unmasked\00", align 1
@__PRETTY_FUNCTION__.ivshmem_vector_unmask = private unnamed_addr constant [65 x i8] c"int ivshmem_vector_unmask(PCIDevice *, unsigned int, MSIMessage)\00", align 1

; Function Attrs: nounwind sspstrong uwtable
define internal ptr @IVSHMEM_COMMON(ptr noundef %obj) #0 {
entry:
  %obj.addr = alloca ptr, align 8
  store ptr %obj, ptr %obj.addr, align 8
  %0 = load ptr, ptr %obj.addr, align 8
  %call = call ptr @object_dynamic_cast_assert(ptr noundef %0, ptr noundef @.str, ptr noundef @.str.7, i32 noundef 63, ptr noundef @__func__.IVSHMEM_COMMON)
  ret ptr %call
}

; Function Attrs: nounwind sspstrong uwtable
define internal i32 @ivshmem_vector_unmask(ptr noundef %dev, i32 noundef %vector, i64 %msg.coerce0, i32 %msg.coerce1) #0 {
entry:
  %retval = alloca i32, align 4
  %msg = alloca %struct.MSIMessage, align 8
  %dev.addr = alloca ptr, align 8
  %vector.addr = alloca i32, align 4
  %s = alloca ptr, align 8
  %n = alloca ptr, align 8
  %v = alloca ptr, align 8
  %ret = alloca i32, align 4
  %0 = getelementptr inbounds { i64, i32 }, ptr %msg, i32 0, i32 0
  store i64 %msg.coerce0, ptr %0, align 8
  %1 = getelementptr inbounds { i64, i32 }, ptr %msg, i32 0, i32 1
  store i32 %msg.coerce1, ptr %1, align 8
  store ptr %dev, ptr %dev.addr, align 8
  store i32 %vector, ptr %vector.addr, align 4
  %2 = load ptr, ptr %dev.addr, align 8
  %call = call ptr @IVSHMEM_COMMON(ptr noundef %2)
  store ptr %call, ptr %s, align 8
  %3 = load ptr, ptr %s, align 8
  %peers = getelementptr inbounds %struct.IVShmemState, ptr %3, i32 0, i32 10
  %4 = load ptr, ptr %peers, align 16
  %5 = load ptr, ptr %s, align 8
  %vm_id = getelementptr inbounds %struct.IVShmemState, ptr %5, i32 0, i32 6
  %6 = load i32, ptr %vm_id, align 16
  %idxprom = sext i32 %6 to i64
  %arrayidx = getelementptr %struct.Peer, ptr %4, i64 %idxprom
  %eventfds = getelementptr inbounds %struct.Peer, ptr %arrayidx, i32 0, i32 1
  %7 = load ptr, ptr %eventfds, align 8
  %8 = load i32, ptr %vector.addr, align 4
  %idxprom1 = zext i32 %8 to i64
  %arrayidx2 = getelementptr %struct.EventNotifier, ptr %7, i64 %idxprom1
  store ptr %arrayidx2, ptr %n, align 8
  %9 = load ptr, ptr %s, align 8
  %msi_vectors = getelementptr inbounds %struct.IVShmemState, ptr %9, i32 0, i32 13
  %10 = load ptr, ptr %msi_vectors, align 16
  %11 = load i32, ptr %vector.addr, align 4
  %idxprom3 = zext i32 %11 to i64
  %arrayidx4 = getelementptr %struct.MSIVector, ptr %10, i64 %idxprom3
  store ptr %arrayidx4, ptr %v, align 8
  br label %do.body

do.body:                                          ; preds = %entry
  br label %do.end

do.end:                                           ; preds = %do.body
  %12 = load ptr, ptr %v, align 8
  %pdev = getelementptr inbounds %struct.MSIVector, ptr %12, i32 0, i32 0
  %13 = load ptr, ptr %pdev, align 8
  %tobool = icmp ne ptr %13, null
  br i1 %tobool, label %if.end, label %if.then

if.then:                                          ; preds = %do.end
  %14 = load i32, ptr %vector.addr, align 4
  call void (ptr, ...) @error_report(ptr noundef @.str.34, i32 noundef %14)
  store i32 -22, ptr %retval, align 4
  br label %return

if.end:                                           ; preds = %do.end
  %15 = load ptr, ptr %v, align 8
  %unmasked = getelementptr inbounds %struct.MSIVector, ptr %15, i32 0, i32 2
  %16 = load i8, ptr %unmasked, align 4
  %tobool5 = trunc i8 %16 to i1
  br i1 %tobool5, label %if.else, label %if.then6

if.then6:                                         ; preds = %if.end
  br label %if.end7

if.else:                                          ; preds = %if.end
  call void @__assert_fail(ptr noundef @.str.35, ptr noundef @.str.7, i32 noundef 288, ptr noundef @__PRETTY_FUNCTION__.ivshmem_vector_unmask) #7
  unreachable

if.end7:                                          ; preds = %if.then6
  %17 = load ptr, ptr @kvm_state, align 8
  %18 = load ptr, ptr %v, align 8
  %virq = getelementptr inbounds %struct.MSIVector, ptr %18, i32 0, i32 1
  %19 = load i32, ptr %virq, align 8
  %20 = load ptr, ptr %dev.addr, align 8
  %21 = getelementptr inbounds { i64, i32 }, ptr %msg, i32 0, i32 0
  %22 = load i64, ptr %21, align 8
  %23 = getelementptr inbounds { i64, i32 }, ptr %msg, i32 0, i32 1
  %24 = load i32, ptr %23, align 8
  %call8 = call i32 @kvm_irqchip_update_msi_route(ptr noundef %17, i32 noundef %19, i64 %22, i32 %24, ptr noundef %20)
  store i32 %call8, ptr %ret, align 4
  %25 = load i32, ptr %ret, align 4
  %cmp = icmp slt i32 %25, 0
  br i1 %cmp, label %if.then9, label %if.end10

if.then9:                                         ; preds = %if.end7
  %26 = load i32, ptr %ret, align 4
  store i32 %26, ptr %retval, align 4
  br label %return

if.end10:                                         ; preds = %if.end7
  %27 = load ptr, ptr @kvm_state, align 8
  call void @kvm_irqchip_commit_routes(ptr noundef %27)
  %28 = load ptr, ptr @kvm_state, align 8
  %29 = load ptr, ptr %n, align 8
  %30 = load ptr, ptr %v, align 8
  %virq11 = getelementptr inbounds %struct.MSIVector, ptr %30, i32 0, i32 1
  %31 = load i32, ptr %virq11, align 8
  %call12 = call i32 @kvm_irqchip_add_irqfd_notifier_gsi(ptr noundef %28, ptr noundef %29, ptr noundef null, i32 noundef %31)
  store i32 %call12, ptr %ret, align 4
  %32 = load i32, ptr %ret, align 4
  %cmp13 = icmp slt i32 %32, 0
  br i1 %cmp13, label %if.then14, label %if.end15

if.then14:                                        ; preds = %if.end10
  %33 = load i32, ptr %ret, align 4
  store i32 %33, ptr %retval, align 4
  br label %return

if.end15:                                         ; preds = %if.end10
  %34 = load ptr, ptr %v, align 8
  %unmasked16 = getelementptr inbounds %struct.MSIVector, ptr %34, i32 0, i32 2
  store i8 1, ptr %unmasked16, align 4
  store i32 0, ptr %retval, align 4
  br label %return

return:                                           ; preds = %if.end15, %if.then14, %if.then9, %if.then
  %35 = load i32, ptr %retval, align 4
  ret i32 %35
}