; Function Attrs: nounwind sspstrong uwtable
define internal range(i32 -2147483648, 1) i32 @ivshmem_vector_unmask(ptr noundef %dev, i32 noundef %vector, i64 %msg.coerce0, i32 %msg.coerce1) #0 {
entry:
  %call.i = tail call ptr @object_dynamic_cast_assert(ptr noundef %dev, ptr noundef nonnull @.str, ptr noundef nonnull @.str.7, i32 noundef 63, ptr noundef nonnull @__func__.IVSHMEM_COMMON) #11
  %peers = getelementptr inbounds nuw i8, ptr %call.i, i64 3264
  %0 = load ptr, ptr %peers, align 16
  %vm_id = getelementptr inbounds nuw i8, ptr %call.i, i64 2688
  %1 = load i32, ptr %vm_id, align 16
  %idxprom = sext i32 %1 to i64
  %eventfds = getelementptr %struct.Peer, ptr %0, i64 %idxprom, i32 1
  %2 = load ptr, ptr %eventfds, align 8
  %idxprom1 = zext i32 %vector to i64
  %arrayidx2 = getelementptr %struct.EventNotifier, ptr %2, i64 %idxprom1
  %msi_vectors = getelementptr inbounds nuw i8, ptr %call.i, i64 3280
  %3 = load ptr, ptr %msi_vectors, align 16
  %arrayidx4 = getelementptr %struct.MSIVector, ptr %3, i64 %idxprom1
  %4 = load ptr, ptr %arrayidx4, align 8
  %tobool.not = icmp eq ptr %4, null
  br i1 %tobool.not, label %if.then, label %if.end

if.then:                                          ; preds = %entry
  tail call void (ptr, ...) @error_report(ptr noundef nonnull @.str.34, i32 noundef %vector) #11
  br label %return

if.end:                                           ; preds = %entry
  %unmasked = getelementptr inbounds nuw i8, ptr %arrayidx4, i64 12
  %5 = load i8, ptr %unmasked, align 4
  %tobool5 = trunc i8 %5 to i1
  br i1 %tobool5, label %if.else, label %if.end7

if.else:                                          ; preds = %if.end
  tail call void @__assert_fail(ptr noundef nonnull @.str.35, ptr noundef nonnull @.str.7, i32 noundef 288, ptr noundef nonnull @__PRETTY_FUNCTION__.ivshmem_vector_unmask) #12
  unreachable

if.end7:                                          ; preds = %if.end
  %6 = load ptr, ptr @kvm_state, align 8
  %virq = getelementptr inbounds nuw i8, ptr %arrayidx4, i64 8
  %7 = load i32, ptr %virq, align 8
  %call8 = tail call i32 @kvm_irqchip_update_msi_route(ptr noundef %6, i32 noundef %7, i64 %msg.coerce0, i32 %msg.coerce1, ptr noundef %dev) #11
  %cmp = icmp slt i32 %call8, 0
  br i1 %cmp, label %return, label %if.end10

if.end10:                                         ; preds = %if.end7
  %8 = load ptr, ptr @kvm_state, align 8
  tail call void @kvm_irqchip_commit_routes(ptr noundef %8) #11
  %9 = load ptr, ptr @kvm_state, align 8
  %10 = load i32, ptr %virq, align 8
  %call12 = tail call i32 @kvm_irqchip_add_irqfd_notifier_gsi(ptr noundef %9, ptr noundef %arrayidx2, ptr noundef null, i32 noundef %10) #11
  %cmp13 = icmp slt i32 %call12, 0
  br i1 %cmp13, label %return, label %if.end15

if.end15:                                         ; preds = %if.end10
  store i8 1, ptr %unmasked, align 4
  br label %return

return:                                           ; preds = %if.end10, %if.end7, %if.end15, %if.then
  %retval.0 = phi i32 [ 0, %if.end15 ], [ -22, %if.then ], [ %call8, %if.end7 ], [ %call12, %if.end10 ]
  ret i32 %retval.0
}